target datalayout = "e-m:e-p270:32:32-p271:32:32-p272:64:64-i64:64-i128:128-f80:128-n8:16:32:64-S128"
target triple = "x86_64-pc-linux-gnu"

%"class.std::__cxx11::basic_string" = type { %"struct.std::__cxx11::basic_string<char>::_Alloc_hider", i64, %union.anon }
%"struct.std::__cxx11::basic_string<char>::_Alloc_hider" = type { ptr }
%union.anon = type { i64, [8 x i8] }
%"class.std::allocator" = type { i8 }
%"class.absl::debian2::Span" = type { ptr, i64 }
%class.anon = type { i8 }

@.str.4 = private unnamed_addr constant [144 x i8] c"generated/home/dtcxzyw/WorkSpace/Projects/compilers/llvm-opt-benchmark/bench/openspiel/open_spiel/open_spiel/games/dou_dizhu/dou_dizhu_utils.cc\00", align 1
@.str.5 = private unnamed_addr constant [2 x i8] c":\00", align 1
@.str.6 = private unnamed_addr constant [2 x i8] c" \00", align 1
@.str.9 = private unnamed_addr constant [4 x i8] c" = \00", align 1
@.str.22 = private unnamed_addr constant [7 x i8] c", 1 = \00", align 1
@.str.45 = private unnamed_addr constant [23 x i8] c"There cannot be a bomb\00", align 1
@.str.46 = private unnamed_addr constant [18 x i8] c"trio_counter == 1\00", align 1
@.str.47 = private unnamed_addr constant [14 x i8] c"\0Atrio_counter\00", align 1
@.str.48 = private unnamed_addr constant [20 x i8] c"kicker_counter == 1\00", align 1
@.str.49 = private unnamed_addr constant [16 x i8] c"\0Akicker_counter\00", align 1

; Function Attrs: noreturn nounwind uwtable
define linkonce_odr hidden void @__clang_call_terminate(ptr noundef %0) #9 comdat {
  %2 = call ptr @__cxa_begin_catch(ptr %0) #3
  call void @_ZSt9terminatev() #15
  unreachable
}

; Function Attrs: mustprogress nounwind uwtable
define linkonce_odr noundef ptr @_ZNK4absl7debian24SpanIKiE4dataEv(ptr noundef nonnull align 8 dereferenceable(16) %0) #4 comdat align 2 {
  %2 = alloca ptr, align 8
  store ptr %0, ptr %2, align 8
  %3 = load ptr, ptr %2, align 8
  %4 = getelementptr inbounds nuw %"class.absl::debian2::Span", ptr %3, i32 0, i32 0
  %5 = load ptr, ptr %4, align 8
  ret ptr %5
}

; Function Attrs: mustprogress nounwind uwtable
define linkonce_odr void @_ZZNK4absl7debian24SpanIKiEixEmENKUlvE_clEv(ptr noundef nonnull align 1 dereferenceable(1) %0) #4 comdat align 2 {
  %2 = alloca ptr, align 8
  store ptr %0, ptr %2, align 8
  br label %3

3:                                                ; preds = %1
  call void @llvm.trap()
  unreachable

4:                                                ; No predecessors!
  ret void
}

; Function Attrs: mustprogress nounwind uwtable
define linkonce_odr noundef i64 @_ZNK4absl7debian24SpanIKiE4sizeEv(ptr noundef nonnull align 8 dereferenceable(16) %0) #4 comdat align 2 {
  %2 = alloca ptr, align 8
  store ptr %0, ptr %2, align 8
  %3 = load ptr, ptr %2, align 8
  %4 = getelementptr inbounds nuw %"class.absl::debian2::Span", ptr %3, i32 0, i32 1
  %5 = load i64, ptr %4, align 8
  ret i64 %5
}

; Function Attrs: mustprogress nounwind uwtable
define linkonce_odr noundef nonnull align 4 dereferenceable(4) ptr @_ZNK4absl7debian24SpanIKiEixEm(ptr noundef nonnull align 8 dereferenceable(16) %0, i64 noundef %1) #4 comdat align 2 personality ptr @__gxx_personality_v0 {
  %3 = alloca ptr, align 8
  %4 = alloca i64, align 8
  %5 = alloca %class.anon, align 1
  store ptr %0, ptr %3, align 8
  store i64 %1, ptr %4, align 8
  %6 = load ptr, ptr %3, align 8
  %7 = load i64, ptr %4, align 8
  %8 = call noundef i64 @_ZNK4absl7debian24SpanIKiE4sizeEv(ptr noundef nonnull align 8 dereferenceable(16) %6) #3
  %9 = icmp ult i64 %7, %8
  br i1 %9, label %10, label %11

10:                                               ; preds = %2
  br label %13

11:                                               ; preds = %2
  invoke void @_ZZNK4absl7debian24SpanIKiEixEmENKUlvE_clEv(ptr noundef nonnull align 1 dereferenceable(1) %5)
          to label %12 unwind label %17

12:                                               ; preds = %11
  br label %13

13:                                               ; preds = %12, %10
  %14 = call noundef ptr @_ZNK4absl7debian24SpanIKiE4dataEv(ptr noundef nonnull align 8 dereferenceable(16) %6) #3
  %15 = load i64, ptr %4, align 8
  %16 = getelementptr inbounds i32, ptr %14, i64 %15
  ret ptr %16

17:                                               ; preds = %11
  %18 = landingpad { ptr, i32 }
          catch ptr null
  %19 = extractvalue { ptr, i32 } %18, 0
  call void @__clang_call_terminate(ptr %19) #15
  unreachable
}

; Function Attrs: mustprogress uwtable
define noundef i32 @_ZN10open_spiel9dou_dizhu28SingleTrioCombHandToActionIdEN4absl7debian24SpanIKiEE(ptr %0, i64 %1) #5 personality ptr @__gxx_personality_v0 {
  %3 = alloca %"class.absl::debian2::Span", align 8
  %4 = alloca i32, align 4
  %5 = alloca i32, align 4
  %6 = alloca i32, align 4
  %7 = alloca i32, align 4
  %8 = alloca i32, align 4
  %9 = alloca %"class.std::__cxx11::basic_string", align 8
  %10 = alloca %"class.std::allocator", align 1
  %11 = alloca ptr, align 8
  %12 = alloca i32, align 4
  %13 = alloca i32, align 4
  %14 = alloca i32, align 4
  %15 = alloca %"class.std::__cxx11::basic_string", align 8
  %16 = alloca i32, align 4
  %17 = alloca i32, align 4
  %18 = alloca i32, align 4
  %19 = alloca %"class.std::__cxx11::basic_string", align 8
  %20 = alloca i32, align 4
  %21 = alloca i32, align 4
  %22 = alloca i32, align 4
  %23 = alloca i32, align 4
  %24 = getelementptr inbounds nuw { ptr, i64 }, ptr %3, i32 0, i32 0
  store ptr %0, ptr %24, align 8
  %25 = getelementptr inbounds nuw { ptr, i64 }, ptr %3, i32 0, i32 1
  store i64 %1, ptr %25, align 8
  store i32 0, ptr %6, align 4
  store i32 0, ptr %7, align 4
  store i32 0, ptr %8, align 4
  br label %26

26:                                               ; preds = %76, %2
  %27 = load i32, ptr %8, align 4
  %28 = icmp slt i32 %27, 15
  br i1 %28, label %29, label %79

29:                                               ; preds = %26
  %30 = load i32, ptr %8, align 4
  %31 = sext i32 %30 to i64
  %32 = call noundef nonnull align 4 dereferenceable(4) ptr @_ZNK4absl7debian24SpanIKiEixEm(ptr noundef nonnull align 8 dereferenceable(16) %3, i64 noundef %31) #3
  %33 = load i32, ptr %32, align 4
  %34 = icmp eq i32 %33, 3
  br i1 %34, label %35, label %39

35:                                               ; preds = %29
  %36 = load i32, ptr %6, align 4
  %37 = add nsw i32 %36, 1
  store i32 %37, ptr %6, align 4
  %38 = load i32, ptr %8, align 4
  store i32 %38, ptr %4, align 4
  br label %75

39:                                               ; preds = %29
  %40 = load i32, ptr %8, align 4
  %41 = sext i32 %40 to i64
  %42 = call noundef nonnull align 4 dereferenceable(4) ptr @_ZNK4absl7debian24SpanIKiEixEm(ptr noundef nonnull align 8 dereferenceable(16) %3, i64 noundef %41) #3
  %43 = load i32, ptr %42, align 4
  %44 = icmp eq i32 %43, 1
  br i1 %44, label %51, label %45

45:                                               ; preds = %39
  %46 = load i32, ptr %8, align 4
  %47 = sext i32 %46 to i64
  %48 = call noundef nonnull align 4 dereferenceable(4) ptr @_ZNK4absl7debian24SpanIKiEixEm(ptr noundef nonnull align 8 dereferenceable(16) %3, i64 noundef %47) #3
  %49 = load i32, ptr %48, align 4
  %50 = icmp eq i32 %49, 2
  br i1 %50, label %51, label %55

51:                                               ; preds = %45, %39
  %52 = load i32, ptr %7, align 4
  %53 = add nsw i32 %52, 1
  store i32 %53, ptr %7, align 4
  %54 = load i32, ptr %8, align 4
  store i32 %54, ptr %5, align 4
  br label %74

55:                                               ; preds = %45
  %56 = load i32, ptr %8, align 4
  %57 = sext i32 %56 to i64
  %58 = call noundef nonnull align 4 dereferenceable(4) ptr @_ZNK4absl7debian24SpanIKiEixEm(ptr noundef nonnull align 8 dereferenceable(16) %3, i64 noundef %57) #3
  %59 = load i32, ptr %58, align 4
  %60 = icmp eq i32 %59, 4
  br i1 %60, label %61, label %73

61:                                               ; preds = %55
  call void @_ZNSaIcEC1Ev(ptr noundef nonnull align 1 dereferenceable(1) %10) #3
  invoke void @_ZNSt7__cxx1112basic_stringIcSt11char_traitsIcESaIcEEC2IS3_EEPKcRKS3_(ptr noundef nonnull align 8 dereferenceable(32) %9, ptr noundef @.str.45, ptr noundef nonnull align 1 dereferenceable(1) %10)
          to label %62 unwind label %64

62:                                               ; preds = %61
  invoke void @_ZN10open_spiel15SpielFatalErrorERKNSt7__cxx1112basic_stringIcSt11char_traitsIcESaIcEEE(ptr noundef nonnull align 8 dereferenceable(32) %9) #14
          to label %63 unwind label %68

63:                                               ; preds = %62
  unreachable

64:                                               ; preds = %61
  %65 = landingpad { ptr, i32 }
          cleanup
  %66 = extractvalue { ptr, i32 } %65, 0
  store ptr %66, ptr %11, align 8
  %67 = extractvalue { ptr, i32 } %65, 1
  store i32 %67, ptr %12, align 4
  br label %72

68:                                               ; preds = %62
  %69 = landingpad { ptr, i32 }
          cleanup
  %70 = extractvalue { ptr, i32 } %69, 0
  store ptr %70, ptr %11, align 8
  %71 = extractvalue { ptr, i32 } %69, 1
  store i32 %71, ptr %12, align 4
  call void @_ZNSt7__cxx1112basic_stringIcSt11char_traitsIcESaIcEED1Ev(ptr noundef nonnull align 8 dereferenceable(32) %9) #3
  br label %72

72:                                               ; preds = %68, %64
  call void @_ZNSaIcED1Ev(ptr noundef nonnull align 1 dereferenceable(1) %10) #3
  br label %154

73:                                               ; preds = %55
  br label %74

74:                                               ; preds = %73, %51
  br label %75

75:                                               ; preds = %74, %35
  br label %76

76:                                               ; preds = %75
  %77 = load i32, ptr %8, align 4
  %78 = add nsw i32 %77, 1
  store i32 %78, ptr %8, align 4
  br label %26, !llvm.loop !24

79:                                               ; preds = %26
  br label %80

80:                                               ; preds = %79
  %81 = load i32, ptr %6, align 4
  store i32 %81, ptr %13, align 4
  store i32 1, ptr %14, align 4
  %82 = load i32, ptr %13, align 4
  %83 = load i32, ptr %14, align 4
  %84 = icmp eq i32 %82, %83
  br i1 %84, label %91, label %85

85:                                               ; preds = %80
  store i32 580, ptr %16, align 4
  call void @_ZN10open_spiel8internal11SpielStrCatIJRA144_KcRA2_S2_iS6_RA18_S2_RA14_S2_RA4_S2_RiRA7_S2_SD_EEENSt7__cxx1112basic_stringIcSt11char_traitsIcESaIcEEEDpOT_(ptr dead_on_unwind writable sret(%"class.std::__cxx11::basic_string") align 8 %15, ptr noundef nonnull align 1 dereferenceable(144) @.str.4, ptr noundef nonnull align 1 dereferenceable(2) @.str.5, ptr noundef nonnull align 4 dereferenceable(4) %16, ptr noundef nonnull align 1 dereferenceable(2) @.str.6, ptr noundef nonnull align 1 dereferenceable(18) @.str.46, ptr noundef nonnull align 1 dereferenceable(14) @.str.47, ptr noundef nonnull align 1 dereferenceable(4) @.str.9, ptr noundef nonnull align 4 dereferenceable(4) %13, ptr noundef nonnull align 1 dereferenceable(7) @.str.22, ptr noundef nonnull align 4 dereferenceable(4) %14)
  invoke void @_ZN10open_spiel15SpielFatalErrorERKNSt7__cxx1112basic_stringIcSt11char_traitsIcESaIcEEE(ptr noundef nonnull align 8 dereferenceable(32) %15) #14
          to label %86 unwind label %87

86:                                               ; preds = %85
  unreachable

87:                                               ; preds = %85
  %88 = landingpad { ptr, i32 }
          cleanup
  %89 = extractvalue { ptr, i32 } %88, 0
  store ptr %89, ptr %11, align 8
  %90 = extractvalue { ptr, i32 } %88, 1
  store i32 %90, ptr %12, align 4
  call void @_ZNSt7__cxx1112basic_stringIcSt11char_traitsIcESaIcEED1Ev(ptr noundef nonnull align 8 dereferenceable(32) %15) #3
  br label %154

91:                                               ; preds = %80
  br label %92

92:                                               ; preds = %91
  br label %93

93:                                               ; preds = %92
  %94 = load i32, ptr %7, align 4
  store i32 %94, ptr %17, align 4
  store i32 1, ptr %18, align 4
  %95 = load i32, ptr %17, align 4
  %96 = load i32, ptr %18, align 4
  %97 = icmp eq i32 %95, %96
  br i1 %97, label %104, label %98

98:                                               ; preds = %93
  store i32 581, ptr %20, align 4
  call void @_ZN10open_spiel8internal11SpielStrCatIJRA144_KcRA2_S2_iS6_RA20_S2_RA16_S2_RA4_S2_RiRA7_S2_SD_EEENSt7__cxx1112basic_stringIcSt11char_traitsIcESaIcEEEDpOT_(ptr dead_on_unwind writable sret(%"class.std::__cxx11::basic_string") align 8 %19, ptr noundef nonnull align 1 dereferenceable(144) @.str.4, ptr noundef nonnull align 1 dereferenceable(2) @.str.5, ptr noundef nonnull align 4 dereferenceable(4) %20, ptr noundef nonnull align 1 dereferenceable(2) @.str.6, ptr noundef nonnull align 1 dereferenceable(20) @.str.48, ptr noundef nonnull align 1 dereferenceable(16) @.str.49, ptr noundef nonnull align 1 dereferenceable(4) @.str.9, ptr noundef nonnull align 4 dereferenceable(4) %17, ptr noundef nonnull align 1 dereferenceable(7) @.str.22, ptr noundef nonnull align 4 dereferenceable(4) %18)
  invoke void @_ZN10open_spiel15SpielFatalErrorERKNSt7__cxx1112basic_stringIcSt11char_traitsIcESaIcEEE(ptr noundef nonnull align 8 dereferenceable(32) %19) #14
          to label %99 unwind label %100

99:                                               ; preds = %98
  unreachable

100:                                              ; preds = %98
  %101 = landingpad { ptr, i32 }
          cleanup
  %102 = extractvalue { ptr, i32 } %101, 0
  store ptr %102, ptr %11, align 8
  %103 = extractvalue { ptr, i32 } %101, 1
  store i32 %103, ptr %12, align 4
  call void @_ZNSt7__cxx1112basic_stringIcSt11char_traitsIcESaIcEED1Ev(ptr noundef nonnull align 8 dereferenceable(32) %19) #3
  br label %154

104:                                              ; preds = %93
  br label %105

105:                                              ; preds = %104
  %106 = load i32, ptr %5, align 4
  %107 = sext i32 %106 to i64
  %108 = call noundef nonnull align 4 dereferenceable(4) ptr @_ZNK4absl7debian24SpanIKiEixEm(ptr noundef nonnull align 8 dereferenceable(16) %3, i64 noundef %107) #3
  %109 = load i32, ptr %108, align 4
  %110 = icmp eq i32 %109, 1
  br i1 %110, label %111, label %112

111:                                              ; preds = %105
  store i32 133, ptr %21, align 4
  br label %113

112:                                              ; preds = %105
  store i32 315, ptr %21, align 4
  br label %113

113:                                              ; preds = %112, %111
  %114 = load i32, ptr %5, align 4
  %115 = sext i32 %114 to i64
  %116 = call noundef nonnull align 4 dereferenceable(4) ptr @_ZNK4absl7debian24SpanIKiEixEm(ptr noundef nonnull align 8 dereferenceable(16) %3, i64 noundef %115) #3
  %117 = load i32, ptr %116, align 4
  %118 = icmp eq i32 %117, 1
  br i1 %118, label %119, label %124

119:                                              ; preds = %113
  %120 = load i32, ptr %4, align 4
  %121 = mul nsw i32 %120, 14
  %122 = load i32, ptr %21, align 4
  %123 = add nsw i32 %122, %121
  store i32 %123, ptr %21, align 4
  br label %129

124:                                              ; preds = %113
  %125 = load i32, ptr %4, align 4
  %126 = mul nsw i32 %125, 12
  %127 = load i32, ptr %21, align 4
  %128 = add nsw i32 %127, %126
  store i32 %128, ptr %21, align 4
  br label %129

129:                                              ; preds = %124, %119
  store i32 0, ptr %22, align 4
  store i32 0, ptr %23, align 4
  br label %130

130:                                              ; preds = %146, %129
  %131 = load i32, ptr %23, align 4
  %132 = icmp slt i32 %131, 15
  br i1 %132, label %133, label %149

133:                                              ; preds = %130
  %134 = load i32, ptr %23, align 4
  %135 = load i32, ptr %4, align 4
  %136 = icmp eq i32 %134, %135
  br i1 %136, label %137, label %138

137:                                              ; preds = %133
  br label %146

138:                                              ; preds = %133
  %139 = load i32, ptr %23, align 4
  %140 = load i32, ptr %5, align 4
  %141 = icmp eq i32 %139, %140
  br i1 %141, label %142, label %143

142:                                              ; preds = %138
  br label %149

143:                                              ; preds = %138
  %144 = load i32, ptr %22, align 4
  %145 = add nsw i32 %144, 1
  store i32 %145, ptr %22, align 4
  br label %146

146:                                              ; preds = %143, %137
  %147 = load i32, ptr %23, align 4
  %148 = add nsw i32 %147, 1
  store i32 %148, ptr %23, align 4
  br label %130, !llvm.loop !25

149:                                              ; preds = %142, %130
  %150 = load i32, ptr %22, align 4
  %151 = load i32, ptr %21, align 4
  %152 = add nsw i32 %151, %150
  store i32 %152, ptr %21, align 4
  %153 = load i32, ptr %21, align 4
  ret i32 %153

154:                                              ; preds = %100, %87, %72
  %155 = load ptr, ptr %11, align 8
  %156 = load i32, ptr %12, align 4
  %157 = insertvalue { ptr, i32 } poison, ptr %155, 0
  %158 = insertvalue { ptr, i32 } %157, i32 %156, 1
  resume { ptr, i32 } %158
}