; Function Attrs: mustprogress uwtable
define noundef i32 @_ZN10open_spiel9dou_dizhu28SingleTrioCombHandToActionIdEN4absl7debian24SpanIKiEE(ptr nocapture readonly %0, i64 %1) local_unnamed_addr #4 personality ptr @__gxx_personality_v0 {
  %3 = alloca %"class.std::__cxx11::basic_string", align 8
  %4 = alloca %"class.std::allocator", align 1
  %5 = alloca i32, align 4
  %6 = alloca i32, align 4
  %7 = alloca %"class.std::__cxx11::basic_string", align 8
  %8 = alloca i32, align 4
  %9 = alloca i32, align 4
  %10 = alloca i32, align 4
  %11 = alloca %"class.std::__cxx11::basic_string", align 8
  %12 = alloca i32, align 4
  br label %13

13:                                               ; preds = %2, %31
  %indvars.iv = phi i64 [ 0, %2 ], [ %indvars.iv.next, %31 ]
  %.03774 = phi i32 [ 0, %2 ], [ %.138, %31 ]
  %.03973 = phi i32 [ 0, %2 ], [ %.140, %31 ]
  %.04172 = phi i32 [ undef, %2 ], [ %.142, %31 ]
  %.04371 = phi i32 [ undef, %2 ], [ %.144, %31 ]
  %exitcond.not = icmp eq i64 %indvars.iv, %1
  br i1 %exitcond.not, label %14, label %_ZNK4absl7debian24SpanIKiEixEm.exit

14:                                               ; preds = %13
  tail call void @llvm.trap()
  unreachable

_ZNK4absl7debian24SpanIKiEixEm.exit:              ; preds = %13
  %15 = getelementptr inbounds i32, ptr %0, i64 %indvars.iv
  %16 = load i32, ptr %15, align 4
  switch i32 %16, label %31 [
    i32 3, label %17
    i32 1, label %20
    i32 2, label %20
    i32 4, label %23
  ]

17:                                               ; preds = %_ZNK4absl7debian24SpanIKiEixEm.exit
  %18 = add nsw i32 %.03973, 1
  %19 = trunc nuw nsw i64 %indvars.iv to i32
  br label %31

20:                                               ; preds = %_ZNK4absl7debian24SpanIKiEixEm.exit, %_ZNK4absl7debian24SpanIKiEixEm.exit
  %21 = add nsw i32 %.03774, 1
  %22 = trunc nuw nsw i64 %indvars.iv to i32
  br label %31

23:                                               ; preds = %_ZNK4absl7debian24SpanIKiEixEm.exit
  call void @_ZNSaIcEC1Ev(ptr noundef nonnull align 1 dereferenceable(1) %4) #19
  invoke void @_ZNSt7__cxx1112basic_stringIcSt11char_traitsIcESaIcEEC2IS3_EEPKcRKS3_(ptr noundef nonnull align 8 dereferenceable(32) %3, ptr noundef nonnull @.str.45, ptr noundef nonnull align 1 dereferenceable(1) %4)
          to label %24 unwind label %26

24:                                               ; preds = %23
  invoke void @_ZN10open_spiel15SpielFatalErrorERKNSt7__cxx1112basic_stringIcSt11char_traitsIcESaIcEEE(ptr noundef nonnull align 8 dereferenceable(32) %3) #20
          to label %25 unwind label %28

25:                                               ; preds = %24
  unreachable

26:                                               ; preds = %23
  %27 = landingpad { ptr, i32 }
          cleanup
  br label %30

28:                                               ; preds = %24
  %29 = landingpad { ptr, i32 }
          cleanup
  call void @_ZNSt7__cxx1112basic_stringIcSt11char_traitsIcESaIcEED1Ev(ptr noundef nonnull align 8 dereferenceable(32) %3) #19
  br label %30

30:                                               ; preds = %28, %26
  %.pn45 = phi { ptr, i32 } [ %29, %28 ], [ %27, %26 ]
  call void @_ZNSaIcED1Ev(ptr noundef nonnull align 1 dereferenceable(1) %4) #19
  br label %61

31:                                               ; preds = %_ZNK4absl7debian24SpanIKiEixEm.exit, %17, %20
  %.144 = phi i32 [ %19, %17 ], [ %.04371, %20 ], [ %.04371, %_ZNK4absl7debian24SpanIKiEixEm.exit ]
  %.142 = phi i32 [ %.04172, %17 ], [ %22, %20 ], [ %.04172, %_ZNK4absl7debian24SpanIKiEixEm.exit ]
  %.140 = phi i32 [ %18, %17 ], [ %.03973, %20 ], [ %.03973, %_ZNK4absl7debian24SpanIKiEixEm.exit ]
  %.138 = phi i32 [ %.03774, %17 ], [ %21, %20 ], [ %.03774, %_ZNK4absl7debian24SpanIKiEixEm.exit ]
  %indvars.iv.next = add nuw nsw i64 %indvars.iv, 1
  %exitcond79.not = icmp eq i64 %indvars.iv.next, 15
  br i1 %exitcond79.not, label %32, label %13, !llvm.loop !39

32:                                               ; preds = %31
  store i32 %.140, ptr %5, align 4
  store i32 1, ptr %6, align 4
  %33 = icmp eq i32 %.140, 1
  br i1 %33, label %38, label %34

34:                                               ; preds = %32
  store i32 580, ptr %8, align 4
  call void @_ZN10open_spiel8internal11SpielStrCatIJRA144_KcRA2_S2_iS6_RA18_S2_RA14_S2_RA4_S2_RiRA7_S2_SD_EEENSt7__cxx1112basic_stringIcSt11char_traitsIcESaIcEEEDpOT_(ptr dead_on_unwind nonnull writable sret(%"class.std::__cxx11::basic_string") align 8 %7, ptr noundef nonnull align 1 dereferenceable(144) @.str.4, ptr noundef nonnull align 1 dereferenceable(2) @.str.5, ptr noundef nonnull align 4 dereferenceable(4) %8, ptr noundef nonnull align 1 dereferenceable(2) @.str.6, ptr noundef nonnull align 1 dereferenceable(18) @.str.46, ptr noundef nonnull align 1 dereferenceable(14) @.str.47, ptr noundef nonnull align 1 dereferenceable(4) @.str.9, ptr noundef nonnull align 4 dereferenceable(4) %5, ptr noundef nonnull align 1 dereferenceable(7) @.str.22, ptr noundef nonnull align 4 dereferenceable(4) %6)
  invoke void @_ZN10open_spiel15SpielFatalErrorERKNSt7__cxx1112basic_stringIcSt11char_traitsIcESaIcEEE(ptr noundef nonnull align 8 dereferenceable(32) %7) #20
          to label %35 unwind label %36

35:                                               ; preds = %34
  unreachable

36:                                               ; preds = %34
  %37 = landingpad { ptr, i32 }
          cleanup
  call void @_ZNSt7__cxx1112basic_stringIcSt11char_traitsIcESaIcEED1Ev(ptr noundef nonnull align 8 dereferenceable(32) %7) #19
  br label %61

38:                                               ; preds = %32
  store i32 %.138, ptr %9, align 4
  store i32 1, ptr %10, align 4
  %39 = icmp eq i32 %.138, 1
  br i1 %39, label %44, label %40

40:                                               ; preds = %38
  store i32 581, ptr %12, align 4
  call void @_ZN10open_spiel8internal11SpielStrCatIJRA144_KcRA2_S2_iS6_RA20_S2_RA16_S2_RA4_S2_RiRA7_S2_SD_EEENSt7__cxx1112basic_stringIcSt11char_traitsIcESaIcEEEDpOT_(ptr dead_on_unwind nonnull writable sret(%"class.std::__cxx11::basic_string") align 8 %11, ptr noundef nonnull align 1 dereferenceable(144) @.str.4, ptr noundef nonnull align 1 dereferenceable(2) @.str.5, ptr noundef nonnull align 4 dereferenceable(4) %12, ptr noundef nonnull align 1 dereferenceable(2) @.str.6, ptr noundef nonnull align 1 dereferenceable(20) @.str.48, ptr noundef nonnull align 1 dereferenceable(16) @.str.49, ptr noundef nonnull align 1 dereferenceable(4) @.str.9, ptr noundef nonnull align 4 dereferenceable(4) %9, ptr noundef nonnull align 1 dereferenceable(7) @.str.22, ptr noundef nonnull align 4 dereferenceable(4) %10)
  invoke void @_ZN10open_spiel15SpielFatalErrorERKNSt7__cxx1112basic_stringIcSt11char_traitsIcESaIcEEE(ptr noundef nonnull align 8 dereferenceable(32) %11) #20
          to label %41 unwind label %42

41:                                               ; preds = %40
  unreachable

42:                                               ; preds = %40
  %43 = landingpad { ptr, i32 }
          cleanup
  call void @_ZNSt7__cxx1112basic_stringIcSt11char_traitsIcESaIcEED1Ev(ptr noundef nonnull align 8 dereferenceable(32) %11) #19
  br label %61

44:                                               ; preds = %38
  %45 = sext i32 %.142 to i64
  %46 = icmp ugt i64 %1, %45
  br i1 %46, label %_ZNK4absl7debian24SpanIKiEixEm.exit52, label %47

47:                                               ; preds = %44
  tail call void @llvm.trap()
  unreachable

_ZNK4absl7debian24SpanIKiEixEm.exit52:            ; preds = %44
  %48 = getelementptr inbounds i32, ptr %0, i64 %45
  %49 = load i32, ptr %48, align 4
  br label %50

50:                                               ; preds = %_ZNK4absl7debian24SpanIKiEixEm.exit52, %56
  %.077 = phi i32 [ 0, %_ZNK4absl7debian24SpanIKiEixEm.exit52 ], [ %57, %56 ]
  %.02976 = phi i32 [ 0, %_ZNK4absl7debian24SpanIKiEixEm.exit52 ], [ %.1, %56 ]
  %51 = icmp eq i32 %.077, %.144
  br i1 %51, label %56, label %52

52:                                               ; preds = %50
  %53 = icmp eq i32 %.077, %.142
  br i1 %53, label %58, label %54

54:                                               ; preds = %52
  %55 = add nsw i32 %.02976, 1
  br label %56

56:                                               ; preds = %50, %54
  %.1 = phi i32 [ %.02976, %50 ], [ %55, %54 ]
  %57 = add nuw nsw i32 %.077, 1
  %exitcond80.not = icmp eq i32 %57, 15
  br i1 %exitcond80.not, label %58, label %50, !llvm.loop !40

58:                                               ; preds = %52, %56
  %.029.lcssa = phi i32 [ %.02976, %52 ], [ %.1, %56 ]
  %59 = icmp eq i32 %49, 1
  %.pn.v = select i1 %59, i32 14, i32 12
  %.pn = mul nsw i32 %.pn.v, %.144
  %. = select i1 %59, i32 133, i32 315
  %.131 = add nsw i32 %.pn, %.
  %60 = add nsw i32 %.131, %.029.lcssa
  ret i32 %60

61:                                               ; preds = %42, %36, %30
  %.pn45.pn = phi { ptr, i32 } [ %.pn45, %30 ], [ %43, %42 ], [ %37, %36 ]
  resume { ptr, i32 } %.pn45.pn
}